target datalayout = "e-m:e-p270:32:32-p271:32:32-p272:64:64-i64:64-i128:128-f80:128-n8:16:32:64-S128"
target triple = "x86_64-unknown-linux-gnu"

%struct.MemoryRegion = type { %struct.Object, i8, i8, i8, i8, i8, i8, i8, i8, i8, i8, ptr, ptr, ptr, ptr, ptr, ptr, i32, i128, i64, ptr, i64, i8, i8, i8, i8, i8, ptr, i64, i32, %union.anon, %union.anon.0, %union.anon.1, ptr, i32, ptr, ptr, i8 }
%struct.Object = type { ptr, ptr, ptr, i32, ptr }
%union.anon = type { %struct.QTailQLink }
%struct.QTailQLink = type { ptr, ptr }
%union.anon.0 = type { %struct.QTailQLink }
%union.anon.1 = type { %struct.QTailQLink }
%struct.VFIOPCIDevice = type { %struct.PCIDevice, %struct.VFIODevice, %struct.VFIOINTx, i32, ptr, i64, i32, i64, ptr, i32, ptr, ptr, i32, i32, [6 x %struct.VFIOBAR], ptr, ptr, %struct.PCIHostDeviceAddress, %struct.QemuUUID, %struct.EventNotifier, %struct.EventNotifier, ptr, i32, i32, i32, i32, i32, i32, i32, i32, i32, i32, i32, i8, i8, i8, i8, i8, i8, i8, i8, i8, i8, i8, i8, i8, i8, i32, i8, i8, ptr, %struct.Notifier }
%struct.PCIDevice = type { %struct.DeviceState, i8, i8, ptr, ptr, ptr, ptr, ptr, i32, %struct.PCIReqIDCache, [64 x i8], [7 x %struct.PCIIORegion], %struct.AddressSpace, %struct.MemoryRegion, %struct.MemoryRegion, ptr, ptr, [3 x ptr], i8, i8, i32, i8, i32, ptr, ptr, ptr, ptr, ptr, ptr, %struct.MemoryRegion, %struct.MemoryRegion, %struct.MemoryRegion, ptr, i8, i32, i8, %struct.PCIExpressDevice, ptr, ptr, i32, i8, %struct.MemoryRegion, i32, ptr, ptr, ptr, ptr, ptr, i32 }
%struct.DeviceState = type { %struct.Object, ptr, ptr, i8, i8, i64, ptr, i32, i8, ptr, %struct.NamedGPIOListHead, %struct.NamedClockListHead, %struct.BusStateHead, i32, i32, i32, %struct.ResettableState, ptr, %struct.MemReentrancyGuard }
%struct.NamedGPIOListHead = type { ptr }
%struct.NamedClockListHead = type { ptr }
%struct.BusStateHead = type { ptr }
%struct.ResettableState = type { i32, i8, i8 }
%struct.MemReentrancyGuard = type { i8 }
%struct.PCIReqIDCache = type { ptr, i32 }
%struct.PCIIORegion = type { i64, i64, i8, ptr, ptr }
%struct.AddressSpace = type { %struct.rcu_head, ptr, ptr, ptr, i32, i32, ptr, %union.anon.4, %union.anon.5 }
%struct.rcu_head = type { ptr, ptr }
%union.anon.4 = type { %struct.QTailQLink }
%union.anon.5 = type { %struct.QTailQLink }
%struct.PCIExpressDevice = type { i8, i8, i8, i16, %struct.PCIEAERLog, i16, i16, i16, %struct.PCIESriovPF, %struct.PCIESriovVF }
%struct.PCIEAERLog = type { i16, i16, ptr }
%struct.PCIESriovPF = type { i16, [7 x i8], ptr, ptr }
%struct.PCIESriovVF = type { ptr, i16 }
%struct.VFIODevice = type { %struct.anon.6, %struct.anon.7, %struct.anon.8, ptr, ptr, ptr, ptr, ptr, i32, i32, i8, i8, i8, i8, i32, ptr, i32, i32, i32, ptr, ptr, i32, i8, i8 }
%struct.anon.6 = type { ptr, ptr }
%struct.anon.7 = type { ptr, ptr }
%struct.anon.8 = type { ptr, ptr }
%struct.VFIOINTx = type { i8, i8, i8, %struct.EventNotifier, %struct.EventNotifier, %struct.PCIINTxRoute, i32, ptr }
%struct.PCIINTxRoute = type { i32, i32 }
%struct.VFIOBAR = type { %struct.VFIORegion, ptr, i64, i8, i8, i8, %struct.anon.9 }
%struct.VFIORegion = type { ptr, i64, ptr, i64, i32, i32, ptr, i8 }
%struct.anon.9 = type { ptr }
%struct.PCIHostDeviceAddress = type { i32, i32, i32, i32 }
%struct.QemuUUID = type { %union.anon.10 }
%union.anon.10 = type { %struct.anon.11 }
%struct.anon.11 = type { i32, i16, i16, i8, i8, [6 x i8] }
%struct.EventNotifier = type { i32, i32, i8 }
%struct.Notifier = type { ptr, %struct.anon.12 }
%struct.anon.12 = type { ptr, ptr }

@.str.22 = private unnamed_addr constant [9 x i8] c"vfio-pci\00", align 1
@.str.23 = private unnamed_addr constant [22 x i8] c"../qemu/hw/vfio/pci.h\00", align 1
@__func__.VFIO_PCI = private unnamed_addr constant [9 x i8] c"VFIO_PCI\00", align 1

; Function Attrs: nounwind sspstrong uwtable
define internal ptr @VFIO_PCI(ptr noundef %obj) #0 {
entry:
  %obj.addr = alloca ptr, align 8
  store ptr %obj, ptr %obj.addr, align 8
  %0 = load ptr, ptr %obj.addr, align 8
  %call = call ptr @object_dynamic_cast_assert(ptr noundef %0, ptr noundef @.str.22, ptr noundef @.str.23, i32 noundef 120, ptr noundef @__func__.VFIO_PCI)
  ret ptr %call
}

; Function Attrs: nounwind sspstrong uwtable
define internal void @vfio_intx_routing_notifier(ptr noundef %pdev) #0 {
entry:
  %pdev.addr = alloca ptr, align 8
  %vdev = alloca ptr, align 8
  %route = alloca %struct.PCIINTxRoute, align 4
  %tmp = alloca %struct.PCIINTxRoute, align 4
  store ptr %pdev, ptr %pdev.addr, align 8
  %0 = load ptr, ptr %pdev.addr, align 8
  %call = call ptr @VFIO_PCI(ptr noundef %0)
  store ptr %call, ptr %vdev, align 8
  %1 = load ptr, ptr %vdev, align 8
  %interrupt = getelementptr inbounds %struct.VFIOPCIDevice, ptr %1, i32 0, i32 13
  %2 = load i32, ptr %interrupt, align 4
  %cmp = icmp ne i32 %2, 1
  br i1 %cmp, label %if.then, label %if.end

if.then:                                          ; preds = %entry
  br label %if.end7

if.end:                                           ; preds = %entry
  %3 = load ptr, ptr %vdev, align 8
  %pdev1 = getelementptr inbounds %struct.VFIOPCIDevice, ptr %3, i32 0, i32 0
  %4 = load ptr, ptr %vdev, align 8
  %intx = getelementptr inbounds %struct.VFIOPCIDevice, ptr %4, i32 0, i32 2
  %pin = getelementptr inbounds %struct.VFIOINTx, ptr %intx, i32 0, i32 2
  %5 = load i8, ptr %pin, align 2
  %conv = zext i8 %5 to i32
  %call2 = call i64 @pci_device_route_intx_to_irq(ptr noundef %pdev1, i32 noundef %conv)
  store i64 %call2, ptr %tmp, align 4
  call void @llvm.memcpy.p0.p0.i64(ptr align 4 %route, ptr align 4 %tmp, i64 8, i1 false)
  %6 = load ptr, ptr %vdev, align 8
  %intx3 = getelementptr inbounds %struct.VFIOPCIDevice, ptr %6, i32 0, i32 2
  %route4 = getelementptr inbounds %struct.VFIOINTx, ptr %intx3, i32 0, i32 5
  %call5 = call zeroext i1 @pci_intx_route_changed(ptr noundef %route4, ptr noundef %route)
  br i1 %call5, label %if.then6, label %if.end7

if.then6:                                         ; preds = %if.end
  %7 = load ptr, ptr %vdev, align 8
  call void @vfio_intx_update(ptr noundef %7, ptr noundef %route)
  br label %if.end7

if.end7:                                          ; preds = %if.then6, %if.end, %if.then
  ret void
}