; Function Attrs: nounwind sspstrong uwtable
define internal void @vfio_intx_routing_notifier(ptr noundef %pdev) #0 {
entry:
  %route = alloca %struct.PCIINTxRoute, align 8
  %call.i = tail call ptr @object_dynamic_cast_assert(ptr noundef %pdev, ptr noundef nonnull @.str.22, ptr noundef nonnull @.str.23, i32 noundef 120, ptr noundef nonnull @__func__.VFIO_PCI) #23
  %interrupt = getelementptr inbounds nuw i8, ptr %call.i, i64 2884
  %0 = load i32, ptr %interrupt, align 4
  %cmp.not = icmp eq i32 %0, 1
  br i1 %cmp.not, label %if.end, label %if.end7

if.end:                                           ; preds = %entry
  %pin = getelementptr inbounds nuw i8, ptr %call.i, i64 2762
  %1 = load i8, ptr %pin, align 2
  %conv = zext i8 %1 to i32
  %call2 = tail call i64 @pci_device_route_intx_to_irq(ptr noundef nonnull %call.i, i32 noundef %conv) #23
  store i64 %call2, ptr %route, align 8
  %route4 = getelementptr inbounds nuw i8, ptr %call.i, i64 2788
  %call5 = call zeroext i1 @pci_intx_route_changed(ptr noundef nonnull %route4, ptr noundef nonnull %route) #23
  br i1 %call5, label %if.then6, label %if.end7

if.then6:                                         ; preds = %if.end
  call fastcc void @vfio_intx_update(ptr noundef nonnull %call.i, ptr noundef nonnull %route)
  br label %if.end7

if.end7:                                          ; preds = %entry, %if.then6, %if.end
  ret void
}